target datalayout = "e-m:e-p270:32:32-p271:32:32-p272:64:64-i64:64-i128:128-f80:128-n8:16:32:64-S128"
target triple = "x86_64-pc-linux-gnu"

%struct.FrameRectangle = type { i32, i32, i32, i32 }
%struct.WebPAnimEncoderOptions = type { %struct.WebPMuxAnimParams, i32, i32, i32, i32, i32, [4 x i32] }
%struct.WebPMuxAnimParams = type { i32, i32 }
%struct.WebPAnimEncoder = type { i32, i32, %struct.WebPAnimEncoderOptions, %struct.FrameRectangle, %struct.WebPConfig, %struct.WebPConfig, ptr, %struct.WebPPicture, i32, %struct.WebPPicture, %struct.WebPPicture, ptr, i64, i64, i64, i64, i64, i32, i32, i32, i32, i32, i32, i32, i64, i64, ptr, [100 x i8] }
%struct.WebPConfig = type { i32, float, i32, i32, i32, float, i32, i32, i32, i32, i32, i32, i32, i32, i32, i32, i32, i32, i32, i32, i32, i32, i32, i32, i32, i32, i32, i32, i32 }
%struct.WebPPicture = type { i32, i32, i32, i32, ptr, ptr, ptr, i32, i32, ptr, i32, [2 x i32], ptr, i32, [3 x i32], ptr, ptr, i32, ptr, ptr, i32, ptr, ptr, [3 x i32], ptr, ptr, [8 x i32], ptr, ptr, [2 x ptr] }

; Function Attrs: nounwind uwtable
define i32 @WebPAnimEncoderDeleteChunk(ptr noundef %0, ptr noundef %1) #0 {
  %3 = alloca i32, align 4
  %4 = alloca ptr, align 8
  %5 = alloca ptr, align 8
  store ptr %0, ptr %4, align 8, !tbaa !17
  store ptr %1, ptr %5, align 8, !tbaa !85
  %6 = load ptr, ptr %4, align 8, !tbaa !17
  %7 = icmp eq ptr %6, null
  br i1 %7, label %8, label %9

8:                                                ; preds = %2
  store i32 -1, ptr %3, align 4
  br label %15

9:                                                ; preds = %2
  %10 = load ptr, ptr %4, align 8, !tbaa !17
  %11 = getelementptr inbounds nuw %struct.WebPAnimEncoder, ptr %10, i32 0, i32 26
  %12 = load ptr, ptr %11, align 8, !tbaa !40
  %13 = load ptr, ptr %5, align 8, !tbaa !85
  %14 = call i32 @WebPMuxDeleteChunk(ptr noundef %12, ptr noundef %13)
  store i32 %14, ptr %3, align 4
  br label %15

15:                                               ; preds = %9, %8
  %16 = load i32, ptr %3, align 4
  ret i32 %16
}