; Function Attrs: nounwind uwtable
define i32 @WebPAnimEncoderDeleteChunk(ptr noundef readonly captures(address_is_null) %0, ptr noundef %1) local_unnamed_addr #1 {
  %3 = icmp eq ptr %0, null
  br i1 %3, label %8, label %4

4:                                                ; preds = %2
  %5 = getelementptr inbounds nuw i8, ptr %0, i64 1184
  %6 = load ptr, ptr %5, align 8, !tbaa !42
  %7 = tail call i32 @WebPMuxDeleteChunk(ptr noundef %6, ptr noundef %1) #14
  br label %8

8:                                                ; preds = %2, %4
  %.0 = phi i32 [ %7, %4 ], [ -1, %2 ]
  ret i32 %.0
}